; Function Attrs: mustprogress uwtable
define dso_local void @_ZN4absl5Mutex6UnlockEv(ptr noundef nonnull align 8 dereferenceable(8) %0) local_unnamed_addr #0 align 2 {
  %2 = load atomic i64, ptr %0 monotonic, align 8
  %3 = and i64 %2, 30
  %4 = xor i64 %3, 10
  %5 = icmp samesign ult i64 %4, 6
  br i1 %5, label %_ZNSt13__atomic_baseIlE23compare_exchange_strongERllSt12memory_orderS2_.exit, label %9

_ZNSt13__atomic_baseIlE23compare_exchange_strongERllSt12memory_orderS2_.exit: ; preds = %1
  %6 = and i64 %2, -41
  %7 = cmpxchg ptr %0, i64 %2, i64 %6 release monotonic, align 8
  %8 = extractvalue { i64, i1 } %7, 1
  br i1 %8, label %10, label %9

9:                                                ; preds = %_ZNSt13__atomic_baseIlE23compare_exchange_strongERllSt12memory_orderS2_.exit, %1
  tail call void @_ZN4absl5Mutex10UnlockSlowEPNS_15SynchWaitParamsE(ptr noundef nonnull align 8 dereferenceable(8) %0, ptr noundef null) #29
  br label %10

10:                                               ; preds = %_ZNSt13__atomic_baseIlE23compare_exchange_strongERllSt12memory_orderS2_.exit, %9
  ret void
}